target datalayout = "e-m:e-p270:32:32-p271:32:32-p272:64:64-i64:64-i128:128-f80:128-n8:16:32:64-S128"
target triple = "x86_64-pc-linux-gnu"

%struct.PROV_MAC_CTX = type { ptr, ptr, ptr, ptr }

@.str.1 = private unnamed_addr constant [64 x i8] c"../openssl/providers/implementations/signature/mac_legacy_sig.c\00", align 1

; Function Attrs: nounwind uwtable
define internal void @mac_freectx(ptr noundef %0) #0 {
  %2 = alloca ptr, align 8
  %3 = alloca ptr, align 8
  store ptr %0, ptr %2, align 8, !tbaa !3
  call void @llvm.lifetime.start.p0(i64 8, ptr %3) #4
  %4 = load ptr, ptr %2, align 8, !tbaa !3
  store ptr %4, ptr %3, align 8, !tbaa !3
  %5 = load ptr, ptr %3, align 8, !tbaa !3
  %6 = getelementptr inbounds nuw %struct.PROV_MAC_CTX, ptr %5, i32 0, i32 1
  %7 = load ptr, ptr %6, align 8, !tbaa !32
  call void @CRYPTO_free(ptr noundef %7, ptr noundef @.str.1, i32 noundef 166)
  %8 = load ptr, ptr %3, align 8, !tbaa !3
  %9 = getelementptr inbounds nuw %struct.PROV_MAC_CTX, ptr %8, i32 0, i32 3
  %10 = load ptr, ptr %9, align 8, !tbaa !25
  call void @EVP_MAC_CTX_free(ptr noundef %10)
  %11 = load ptr, ptr %3, align 8, !tbaa !3
  %12 = getelementptr inbounds nuw %struct.PROV_MAC_CTX, ptr %11, i32 0, i32 2
  %13 = load ptr, ptr %12, align 8, !tbaa !11
  call void @ossl_mac_key_free(ptr noundef %13)
  %14 = load ptr, ptr %3, align 8, !tbaa !3
  call void @CRYPTO_free(ptr noundef %14, ptr noundef @.str.1, i32 noundef 169)
  call void @llvm.lifetime.end.p0(i64 8, ptr %3) #4
  ret void
}

; Function Attrs: nounwind uwtable
define internal ptr @mac_dupctx(ptr noundef %0) #0 {
  %2 = alloca ptr, align 8
  %3 = alloca ptr, align 8
  %4 = alloca ptr, align 8
  %5 = alloca ptr, align 8
  %6 = alloca i32, align 4
  store ptr %0, ptr %3, align 8, !tbaa !3
  call void @llvm.lifetime.start.p0(i64 8, ptr %4) #4
  %7 = load ptr, ptr %3, align 8, !tbaa !3
  store ptr %7, ptr %4, align 8, !tbaa !3
  call void @llvm.lifetime.start.p0(i64 8, ptr %5) #4
  %8 = call i32 @ossl_prov_is_running()
  %9 = icmp ne i32 %8, 0
  br i1 %9, label %11, label %10

10:                                               ; preds = %1
  store ptr null, ptr %2, align 8
  store i32 1, ptr %6, align 4
  br label %77

11:                                               ; preds = %1
  %12 = call noalias ptr @CRYPTO_zalloc(i64 noundef 32, ptr noundef @.str.1, i32 noundef 180)
  store ptr %12, ptr %5, align 8, !tbaa !3
  %13 = load ptr, ptr %5, align 8, !tbaa !3
  %14 = icmp eq ptr %13, null
  br i1 %14, label %15, label %16

15:                                               ; preds = %11
  store ptr null, ptr %2, align 8
  store i32 1, ptr %6, align 4
  br label %77

16:                                               ; preds = %11
  %17 = load ptr, ptr %5, align 8, !tbaa !3
  %18 = load ptr, ptr %4, align 8, !tbaa !3
  call void @llvm.memcpy.p0.p0.i64(ptr align 8 %17, ptr align 8 %18, i64 32, i1 false), !tbaa.struct !33
  %19 = load ptr, ptr %5, align 8, !tbaa !3
  %20 = getelementptr inbounds nuw %struct.PROV_MAC_CTX, ptr %19, i32 0, i32 1
  store ptr null, ptr %20, align 8, !tbaa !32
  %21 = load ptr, ptr %5, align 8, !tbaa !3
  %22 = getelementptr inbounds nuw %struct.PROV_MAC_CTX, ptr %21, i32 0, i32 2
  store ptr null, ptr %22, align 8, !tbaa !11
  %23 = load ptr, ptr %5, align 8, !tbaa !3
  %24 = getelementptr inbounds nuw %struct.PROV_MAC_CTX, ptr %23, i32 0, i32 3
  store ptr null, ptr %24, align 8, !tbaa !25
  %25 = load ptr, ptr %4, align 8, !tbaa !3
  %26 = getelementptr inbounds nuw %struct.PROV_MAC_CTX, ptr %25, i32 0, i32 1
  %27 = load ptr, ptr %26, align 8, !tbaa !32
  %28 = icmp ne ptr %27, null
  br i1 %28, label %29, label %38

29:                                               ; preds = %16
  %30 = load ptr, ptr %4, align 8, !tbaa !3
  %31 = getelementptr inbounds nuw %struct.PROV_MAC_CTX, ptr %30, i32 0, i32 1
  %32 = load ptr, ptr %31, align 8, !tbaa !32
  %33 = call noalias ptr @CRYPTO_strdup(ptr noundef %32, ptr noundef @.str.1, i32 noundef 189)
  %34 = load ptr, ptr %5, align 8, !tbaa !3
  %35 = getelementptr inbounds nuw %struct.PROV_MAC_CTX, ptr %34, i32 0, i32 1
  store ptr %33, ptr %35, align 8, !tbaa !32
  %36 = icmp eq ptr %33, null
  br i1 %36, label %37, label %38

37:                                               ; preds = %29
  br label %75

38:                                               ; preds = %29, %16
  %39 = load ptr, ptr %4, align 8, !tbaa !3
  %40 = getelementptr inbounds nuw %struct.PROV_MAC_CTX, ptr %39, i32 0, i32 2
  %41 = load ptr, ptr %40, align 8, !tbaa !11
  %42 = icmp ne ptr %41, null
  br i1 %42, label %43, label %50

43:                                               ; preds = %38
  %44 = load ptr, ptr %4, align 8, !tbaa !3
  %45 = getelementptr inbounds nuw %struct.PROV_MAC_CTX, ptr %44, i32 0, i32 2
  %46 = load ptr, ptr %45, align 8, !tbaa !11
  %47 = call i32 @ossl_mac_key_up_ref(ptr noundef %46)
  %48 = icmp ne i32 %47, 0
  br i1 %48, label %50, label %49

49:                                               ; preds = %43
  br label %75

50:                                               ; preds = %43, %38
  %51 = load ptr, ptr %4, align 8, !tbaa !3
  %52 = getelementptr inbounds nuw %struct.PROV_MAC_CTX, ptr %51, i32 0, i32 2
  %53 = load ptr, ptr %52, align 8, !tbaa !11
  %54 = load ptr, ptr %5, align 8, !tbaa !3
  %55 = getelementptr inbounds nuw %struct.PROV_MAC_CTX, ptr %54, i32 0, i32 2
  store ptr %53, ptr %55, align 8, !tbaa !11
  %56 = load ptr, ptr %4, align 8, !tbaa !3
  %57 = getelementptr inbounds nuw %struct.PROV_MAC_CTX, ptr %56, i32 0, i32 3
  %58 = load ptr, ptr %57, align 8, !tbaa !25
  %59 = icmp ne ptr %58, null
  br i1 %59, label %60, label %73

60:                                               ; preds = %50
  %61 = load ptr, ptr %4, align 8, !tbaa !3
  %62 = getelementptr inbounds nuw %struct.PROV_MAC_CTX, ptr %61, i32 0, i32 3
  %63 = load ptr, ptr %62, align 8, !tbaa !25
  %64 = call ptr @EVP_MAC_CTX_dup(ptr noundef %63)
  %65 = load ptr, ptr %5, align 8, !tbaa !3
  %66 = getelementptr inbounds nuw %struct.PROV_MAC_CTX, ptr %65, i32 0, i32 3
  store ptr %64, ptr %66, align 8, !tbaa !25
  %67 = load ptr, ptr %5, align 8, !tbaa !3
  %68 = getelementptr inbounds nuw %struct.PROV_MAC_CTX, ptr %67, i32 0, i32 3
  %69 = load ptr, ptr %68, align 8, !tbaa !25
  %70 = icmp eq ptr %69, null
  br i1 %70, label %71, label %72

71:                                               ; preds = %60
  br label %75

72:                                               ; preds = %60
  br label %73

73:                                               ; preds = %72, %50
  %74 = load ptr, ptr %5, align 8, !tbaa !3
  store ptr %74, ptr %2, align 8
  store i32 1, ptr %6, align 4
  br label %77

75:                                               ; preds = %71, %49, %37
  %76 = load ptr, ptr %5, align 8, !tbaa !3
  call void @mac_freectx(ptr noundef %76)
  store ptr null, ptr %2, align 8
  store i32 1, ptr %6, align 4
  br label %77

77:                                               ; preds = %75, %73, %15, %10
  call void @llvm.lifetime.end.p0(i64 8, ptr %5) #4
  call void @llvm.lifetime.end.p0(i64 8, ptr %4) #4
  %78 = load ptr, ptr %2, align 8
  ret ptr %78
}