; Function Attrs: nounwind uwtable
define internal ptr @mac_dupctx(ptr noundef readonly captures(none) %0) #0 {
  %2 = tail call i32 @ossl_prov_is_running() #3
  %.not = icmp eq i32 %2, 0
  br i1 %.not, label %33, label %3

3:                                                ; preds = %1
  %4 = tail call noalias ptr @CRYPTO_zalloc(i64 noundef 32, ptr noundef nonnull @.str.1, i32 noundef 180) #3
  %5 = icmp eq ptr %4, null
  br i1 %5, label %33, label %6

6:                                                ; preds = %3
  %7 = load i64, ptr %0, align 8, !tbaa !26
  store i64 %7, ptr %4, align 8, !tbaa !26
  %8 = getelementptr inbounds nuw i8, ptr %4, i64 8
  %9 = getelementptr inbounds nuw i8, ptr %4, i64 16
  %10 = getelementptr inbounds nuw i8, ptr %4, i64 24
  %11 = getelementptr inbounds nuw i8, ptr %0, i64 8
  tail call void @llvm.memset.p0.i64(ptr noundef nonnull align 8 dereferenceable(24) %8, i8 0, i64 24, i1 false)
  %12 = load ptr, ptr %11, align 8, !tbaa !25
  %.not25 = icmp eq ptr %12, null
  br i1 %.not25, label %16, label %13

13:                                               ; preds = %6
  %14 = tail call noalias ptr @CRYPTO_strdup(ptr noundef nonnull %12, ptr noundef nonnull @.str.1, i32 noundef 189) #3
  store ptr %14, ptr %8, align 8, !tbaa !25
  %15 = icmp eq ptr %14, null
  br i1 %15, label %29, label %16

16:                                               ; preds = %13, %6
  %17 = phi ptr [ %14, %13 ], [ null, %6 ]
  %18 = getelementptr inbounds nuw i8, ptr %0, i64 16
  %19 = load ptr, ptr %18, align 8, !tbaa !3
  %.not26 = icmp eq ptr %19, null
  br i1 %.not26, label %22, label %20

20:                                               ; preds = %16
  %21 = tail call i32 @ossl_mac_key_up_ref(ptr noundef nonnull %19) #3
  %.not27 = icmp eq i32 %21, 0
  br i1 %.not27, label %29, label %._crit_edge

._crit_edge:                                      ; preds = %20
  %.pre = load ptr, ptr %18, align 8, !tbaa !3
  br label %22

22:                                               ; preds = %._crit_edge, %16
  %23 = phi ptr [ %.pre, %._crit_edge ], [ null, %16 ]
  store ptr %23, ptr %9, align 8, !tbaa !3
  %24 = getelementptr inbounds nuw i8, ptr %0, i64 24
  %25 = load ptr, ptr %24, align 8, !tbaa !21
  %.not28 = icmp eq ptr %25, null
  br i1 %.not28, label %33, label %26

26:                                               ; preds = %22
  %27 = tail call ptr @EVP_MAC_CTX_dup(ptr noundef nonnull %25) #3
  store ptr %27, ptr %10, align 8, !tbaa !21
  %28 = icmp eq ptr %27, null
  br i1 %28, label %29, label %33

29:                                               ; preds = %26, %20, %13
  %30 = phi ptr [ %17, %26 ], [ %17, %20 ], [ null, %13 ]
  tail call void @CRYPTO_free(ptr noundef %30, ptr noundef nonnull @.str.1, i32 noundef 166) #3
  %31 = load ptr, ptr %10, align 8, !tbaa !21
  tail call void @EVP_MAC_CTX_free(ptr noundef %31) #3
  %32 = load ptr, ptr %9, align 8, !tbaa !3
  tail call void @ossl_mac_key_free(ptr noundef %32) #3
  tail call void @CRYPTO_free(ptr noundef nonnull %4, ptr noundef nonnull @.str.1, i32 noundef 169) #3
  br label %33

33:                                               ; preds = %22, %26, %3, %1, %29
  %.0 = phi ptr [ null, %29 ], [ null, %1 ], [ null, %3 ], [ %4, %26 ], [ %4, %22 ]
  ret ptr %.0
}